ARM GAS  C:\Users\DANIEL~1\AppData\Local\Temp\ccGoCNc5.s 			page 1


   1              		.syntax unified
   2              		.cpu cortex-m0
   3              		.fpu softvfp
   4              		.eabi_attribute 20, 1
   5              		.eabi_attribute 21, 1
   6              		.eabi_attribute 23, 3
   7              		.eabi_attribute 24, 1
   8              		.eabi_attribute 25, 1
   9              		.eabi_attribute 26, 1
  10              		.eabi_attribute 30, 6
  11              		.eabi_attribute 34, 0
  12              		.eabi_attribute 18, 4
  13              		.thumb
  14              		.syntax unified
  15              		.file	"BLE_gatt.c"
  16              		.text
  17              	.Ltext0:
  18              		.cfi_sections	.debug_frame
  19              		.comm	cyBle_state,1,1
  20              		.global	cyBle_gatts
  21              		.section	.rodata
  22              		.align	2
  23              		.type	cyBle_gatts, %object
  24              		.size	cyBle_gatts, 6
  25              	cyBle_gatts:
  26 0000 0800     		.short	8
  27 0002 0A00     		.short	10
  28 0004 0B00     		.short	11
  29              		.data
  30              		.align	2
  31              		.type	cyBle_attValues, %object
  32              		.size	cyBle_attValues, 29
  33              	cyBle_attValues:
  34 0000 46       		.byte	70
  35 0001 69       		.byte	105
  36 0002 6E       		.byte	110
  37 0003 64       		.byte	100
  38 0004 20       		.byte	32
  39 0005 4D       		.byte	77
  40 0006 65       		.byte	101
  41 0007 20       		.byte	32
  42 0008 54       		.byte	84
  43 0009 61       		.byte	97
  44 000a 72       		.byte	114
  45 000b 67       		.byte	103
  46 000c 65       		.byte	101
  47 000d 74       		.byte	116
  48 000e 40       		.byte	64
  49 000f 02       		.byte	2
  50 0010 06       		.byte	6
  51 0011 00       		.byte	0
  52 0012 28       		.byte	40
  53 0013 00       		.byte	0
  54 0014 00       		.byte	0
  55 0015 00       		.byte	0
  56 0016 E8       		.byte	-24
  57 0017 03       		.byte	3
ARM GAS  C:\Users\DANIEL~1\AppData\Local\Temp\ccGoCNc5.s 			page 2


  58 0018 00       		.byte	0
  59 0019 00       		.byte	0
  60 001a 00       		.byte	0
  61 001b 00       		.byte	0
  62 001c 00       		.byte	0
  63              		.comm	cyBle_attValuesCCCD,2,4
  64              		.global	cyBle_attValuesLen
  65 001d 000000   		.align	2
  66              		.type	cyBle_attValuesLen, %object
  67              		.size	cyBle_attValuesLen, 48
  68              	cyBle_attValuesLen:
  69 0020 0E00     		.short	14
  70 0022 0000     		.space	2
  71 0024 00000000 		.word	cyBle_attValues
  72 0028 0200     		.short	2
  73 002a 0000     		.space	2
  74 002c 0E000000 		.word	cyBle_attValues+14
  75 0030 0800     		.short	8
  76 0032 0000     		.space	2
  77 0034 10000000 		.word	cyBle_attValues+16
  78 0038 0400     		.short	4
  79 003a 0000     		.space	2
  80 003c 18000000 		.word	cyBle_attValues+24
  81 0040 0200     		.short	2
  82 0042 0000     		.space	2
  83 0044 00000000 		.word	cyBle_attValuesCCCD
  84 0048 0100     		.short	1
  85 004a 0000     		.space	2
  86 004c 1C000000 		.word	cyBle_attValues+28
  87              		.global	cyBle_gattDB
  88              		.section	.rodata
  89 0006 0000     		.align	2
  90              		.type	cyBle_gattDB, %object
  91              		.size	cyBle_gattDB, 280
  92              	cyBle_gattDB:
  93 0008 0100     		.short	1
  94 000a 0028     		.short	10240
  95 000c 01000000 		.word	1
  96 0010 0700     		.short	7
  97 0012 0000     		.space	2
  98 0014 0018     		.short	6144
  99 0016 0000     		.space	2
 100 0018 00000000 		.word	0
 101 001c 0200     		.short	2
 102 001e 0328     		.short	10243
 103 0020 01000200 		.word	131073
 104 0024 0300     		.short	3
 105 0026 0000     		.space	2
 106 0028 002A     		.short	10752
 107 002a 0000     		.space	2
 108 002c 00000000 		.word	0
 109 0030 0300     		.short	3
 110 0032 002A     		.short	10752
 111 0034 01000201 		.word	16908289
 112 0038 0300     		.short	3
 113 003a 0000     		.space	2
 114 003c 0E00     		.short	14
ARM GAS  C:\Users\DANIEL~1\AppData\Local\Temp\ccGoCNc5.s 			page 3


 115 003e 0000     		.space	2
 116 0040 00000000 		.word	cyBle_attValuesLen
 117 0044 0400     		.short	4
 118 0046 0328     		.short	10243
 119 0048 01000200 		.word	131073
 120 004c 0500     		.short	5
 121 004e 0000     		.space	2
 122 0050 012A     		.short	10753
 123 0052 0000     		.space	2
 124 0054 00000000 		.word	0
 125 0058 0500     		.short	5
 126 005a 012A     		.short	10753
 127 005c 01000201 		.word	16908289
 128 0060 0500     		.short	5
 129 0062 0000     		.space	2
 130 0064 0200     		.short	2
 131 0066 0000     		.space	2
 132 0068 08000000 		.word	cyBle_attValuesLen+8
 133 006c 0600     		.short	6
 134 006e 0328     		.short	10243
 135 0070 01000200 		.word	131073
 136 0074 0700     		.short	7
 137 0076 0000     		.space	2
 138 0078 042A     		.short	10756
 139 007a 0000     		.space	2
 140 007c 00000000 		.word	0
 141 0080 0700     		.short	7
 142 0082 042A     		.short	10756
 143 0084 01000201 		.word	16908289
 144 0088 0700     		.short	7
 145 008a 0000     		.space	2
 146 008c 0800     		.short	8
 147 008e 0000     		.space	2
 148 0090 10000000 		.word	cyBle_attValuesLen+16
 149 0094 0800     		.short	8
 150 0096 0028     		.short	10240
 151 0098 01000000 		.word	1
 152 009c 0B00     		.short	11
 153 009e 0000     		.space	2
 154 00a0 0118     		.short	6145
 155 00a2 0000     		.space	2
 156 00a4 00000000 		.word	0
 157 00a8 0900     		.short	9
 158 00aa 0328     		.short	10243
 159 00ac 01002000 		.word	2097153
 160 00b0 0B00     		.short	11
 161 00b2 0000     		.space	2
 162 00b4 052A     		.short	10757
 163 00b6 0000     		.space	2
 164 00b8 00000000 		.word	0
 165 00bc 0A00     		.short	10
 166 00be 052A     		.short	10757
 167 00c0 00002001 		.word	18874368
 168 00c4 0B00     		.short	11
 169 00c6 0000     		.space	2
 170 00c8 0400     		.short	4
 171 00ca 0000     		.space	2
ARM GAS  C:\Users\DANIEL~1\AppData\Local\Temp\ccGoCNc5.s 			page 4


 172 00cc 18000000 		.word	cyBle_attValuesLen+24
 173 00d0 0B00     		.short	11
 174 00d2 0229     		.short	10498
 175 00d4 01010A01 		.word	17432833
 176 00d8 0B00     		.short	11
 177 00da 0000     		.space	2
 178 00dc 0200     		.short	2
 179 00de 0000     		.space	2
 180 00e0 20000000 		.word	cyBle_attValuesLen+32
 181 00e4 0C00     		.short	12
 182 00e6 0028     		.short	10240
 183 00e8 01000000 		.word	1
 184 00ec 0E00     		.short	14
 185 00ee 0000     		.space	2
 186 00f0 0218     		.short	6146
 187 00f2 0000     		.space	2
 188 00f4 00000000 		.word	0
 189 00f8 0D00     		.short	13
 190 00fa 0328     		.short	10243
 191 00fc 01000400 		.word	262145
 192 0100 0E00     		.short	14
 193 0102 0000     		.space	2
 194 0104 062A     		.short	10758
 195 0106 0000     		.space	2
 196 0108 00000000 		.word	0
 197 010c 0E00     		.short	14
 198 010e 062A     		.short	10758
 199 0110 00010401 		.word	17039616
 200 0114 0E00     		.short	14
 201 0116 0000     		.space	2
 202 0118 0100     		.short	1
 203 011a 0000     		.space	2
 204 011c 28000000 		.word	cyBle_attValuesLen+40
 205              		.section	.text.CyBle_GattsReInitGattDb,"ax",%progbits
 206              		.align	2
 207              		.global	CyBle_GattsReInitGattDb
 208              		.code	16
 209              		.thumb_func
 210              		.type	CyBle_GattsReInitGattDb, %function
 211              	CyBle_GattsReInitGattDb:
 212              	.LFB2:
 213              		.file 1 "Generated_Source\\PSoC4\\BLE_gatt.c"
   1:Generated_Source\PSoC4/BLE_gatt.c **** /***************************************************************************//**
   2:Generated_Source\PSoC4/BLE_gatt.c **** * \file CYBLE_gatt.c
   3:Generated_Source\PSoC4/BLE_gatt.c **** * \version 3.30
   4:Generated_Source\PSoC4/BLE_gatt.c **** * 
   5:Generated_Source\PSoC4/BLE_gatt.c **** * \brief
   6:Generated_Source\PSoC4/BLE_gatt.c **** *  This file contains the source code for the GATT API of the BLE Component.
   7:Generated_Source\PSoC4/BLE_gatt.c **** * 
   8:Generated_Source\PSoC4/BLE_gatt.c **** ********************************************************************************
   9:Generated_Source\PSoC4/BLE_gatt.c **** * \copyright
  10:Generated_Source\PSoC4/BLE_gatt.c **** * Copyright 2014-2016, Cypress Semiconductor Corporation.  All rights reserved.
  11:Generated_Source\PSoC4/BLE_gatt.c **** * You may use this file only in accordance with the license, terms, conditions,
  12:Generated_Source\PSoC4/BLE_gatt.c **** * disclaimers, and limitations in the end user license agreement accompanying
  13:Generated_Source\PSoC4/BLE_gatt.c **** * the software package with which this file was provided.
  14:Generated_Source\PSoC4/BLE_gatt.c **** *******************************************************************************/
  15:Generated_Source\PSoC4/BLE_gatt.c **** 
ARM GAS  C:\Users\DANIEL~1\AppData\Local\Temp\ccGoCNc5.s 			page 5


  16:Generated_Source\PSoC4/BLE_gatt.c **** 
  17:Generated_Source\PSoC4/BLE_gatt.c **** #include "BLE_eventHandler.h"
  18:Generated_Source\PSoC4/BLE_gatt.c **** 
  19:Generated_Source\PSoC4/BLE_gatt.c **** 
  20:Generated_Source\PSoC4/BLE_gatt.c **** /***************************************
  21:Generated_Source\PSoC4/BLE_gatt.c **** * Global variables
  22:Generated_Source\PSoC4/BLE_gatt.c **** ***************************************/
  23:Generated_Source\PSoC4/BLE_gatt.c **** 
  24:Generated_Source\PSoC4/BLE_gatt.c **** CYBLE_STATE_T cyBle_state;
  25:Generated_Source\PSoC4/BLE_gatt.c **** 
  26:Generated_Source\PSoC4/BLE_gatt.c **** #if ((CYBLE_MODE_PROFILE) && (CYBLE_BONDING_REQUIREMENT == CYBLE_BONDING_YES))
  27:Generated_Source\PSoC4/BLE_gatt.c ****     
  28:Generated_Source\PSoC4/BLE_gatt.c **** #if(CYBLE_MODE_PROFILE)
  29:Generated_Source\PSoC4/BLE_gatt.c ****     #if defined(__ARMCC_VERSION)
  30:Generated_Source\PSoC4/BLE_gatt.c ****         CY_ALIGN(CYDEV_FLS_ROW_SIZE) const CY_BLE_FLASH_STORAGE cyBle_flashStorage CY_SECTION(".cy_
  31:Generated_Source\PSoC4/BLE_gatt.c ****     #elif defined (__GNUC__)
  32:Generated_Source\PSoC4/BLE_gatt.c ****         const CY_BLE_FLASH_STORAGE cyBle_flashStorage CY_SECTION(".cy_checksum_exclude")
  33:Generated_Source\PSoC4/BLE_gatt.c ****             CY_ALIGN(CYDEV_FLS_ROW_SIZE) =
  34:Generated_Source\PSoC4/BLE_gatt.c ****     #elif defined (__ICCARM__)
  35:Generated_Source\PSoC4/BLE_gatt.c ****         #pragma data_alignment=CY_FLASH_SIZEOF_ROW
  36:Generated_Source\PSoC4/BLE_gatt.c ****         #pragma location=".cy_checksum_exclude"
  37:Generated_Source\PSoC4/BLE_gatt.c ****         const CY_BLE_FLASH_STORAGE cyBle_flashStorage =
  38:Generated_Source\PSoC4/BLE_gatt.c ****     #endif  /* (__ARMCC_VERSION) */
  39:Generated_Source\PSoC4/BLE_gatt.c ****     {
  40:Generated_Source\PSoC4/BLE_gatt.c ****         { 0x00u, 0x00u, 0x00u, 0x00u, 0x00u, 0x00u, 0x00u, 0x00u, 0x00u, 0x00u, 0x00u, 0x00u, 0x00u
  41:Generated_Source\PSoC4/BLE_gatt.c ****         0x00u, 0x00u, 0x00u, 0x00u, 0x00u, 0x00u, 0x00u, 0x00u, 0x00u, 0x00u, 0x00u, 0x00u, 0x00u, 
  42:Generated_Source\PSoC4/BLE_gatt.c ****         0x00u, 0x00u, 0x00u, 0x00u, 0x00u, 0x00u, 0x00u, 0x00u, 0x00u, 0x00u, 0x00u, 0x00u, 0x00u, 
  43:Generated_Source\PSoC4/BLE_gatt.c ****         0x00u, 0x00u, 0x00u, 0x00u, 0x00u, 0x00u, 0x00u, 0x00u, 0x00u, 0x00u, 0x00u, 0x00u, 0x00u, 
  44:Generated_Source\PSoC4/BLE_gatt.c ****         0x00u, 0x00u, 0x00u, 0x00u, 0x00u, 0x00u, 0x00u, 0x00u, 0x00u, 0x00u, 0x00u, 0x00u, 0x00u, 
  45:Generated_Source\PSoC4/BLE_gatt.c ****         0x00u, 0x00u, 0x00u, 0x00u, 0x00u, 0x00u, 0x00u, 0x00u, 0x00u, 0x00u, 0x00u, 0x00u, 0x00u, 
  46:Generated_Source\PSoC4/BLE_gatt.c ****         0x00u, 0x00u, 0x00u, 0x00u, 0x00u, 0x00u, 0x00u, 0x00u, 0x00u, 0x00u, 0x00u, 0x00u, 0x00u, 
  47:Generated_Source\PSoC4/BLE_gatt.c ****         0x00u, 0x00u, 0x00u, 0x00u, 0x00u, 0x00u, 0x00u, 0x00u, 0x00u, 0x00u, 0x00u, 0x00u, 0x00u, 
  48:Generated_Source\PSoC4/BLE_gatt.c ****         0x00u, 0x00u, 0x00u, 0x00u, 0x00u, 0x00u, 0x00u, 0x00u, 0x00u, 0x00u, 0x00u, 0x00u, 0x00u, 
  49:Generated_Source\PSoC4/BLE_gatt.c ****         0x00u, 0x00u, 0x00u, 0x00u, 0x00u, 0x00u, 0x00u, 0x00u, 0x00u, 0x00u, 0x00u, 0x00u, 0x00u, 
  50:Generated_Source\PSoC4/BLE_gatt.c ****         0x00u, 0x00u, 0x00u, 0x00u, 0x00u, 0x00u, 0x00u, 0x00u, 0x00u, 0x00u, 0x00u, 0x00u, 0x00u, 
  51:Generated_Source\PSoC4/BLE_gatt.c ****         0x00u, 0x00u, 0x00u, 0x00u, 0x00u, 0x00u, 0x00u, 0x00u, 0x00u, 0x00u, 0x00u, 0x00u, 0x00u, 
  52:Generated_Source\PSoC4/BLE_gatt.c ****         0x00u, 0x00u, 0x00u, 0x00u, 0x00u, 0x00u, 0x00u, 0x00u, 0x00u, 0x00u, 0x00u, 0x00u, 0x00u, 
  53:Generated_Source\PSoC4/BLE_gatt.c ****         0x00u, 0x00u, 0x00u, 0x00u, 0x00u, 0x00u, 0x00u, 0x00u, 0x00u, 0x00u, 0x00u, 0x00u, 0x00u, 
  54:Generated_Source\PSoC4/BLE_gatt.c ****         0x00u, 0x00u, 0x00u, 0x00u, 0x00u, 0x00u, 0x00u, 0x00u, 0x00u, 0x00u, 0x00u, 0x00u, 0x00u, 
  55:Generated_Source\PSoC4/BLE_gatt.c ****         0x00u, 0x00u, 0x00u, 0x00u, 0x00u, 0x00u, 0x00u, 0x00u, 0x00u, 0x00u, 0x00u, 0x00u, 0x00u, 
  56:Generated_Source\PSoC4/BLE_gatt.c ****         0x00u, 0x00u, 0x00u, 0x00u, 0x00u, 0x00u, 0x00u, 0x00u, 0x00u, 0x00u, 0x00u, 0x00u, 0x00u, 
  57:Generated_Source\PSoC4/BLE_gatt.c ****         0x00u, 0x00u, 0x00u, 0x00u, 0x00u, 0x00u, 0x00u, 0x00u, 0x00u, 0x00u, 0x00u, 0x00u, 0x00u, 
  58:Generated_Source\PSoC4/BLE_gatt.c ****         0x00u, 0x00u, 0x00u, 0x00u, 0x00u, 0x00u, 0x00u, 0x00u, 0x00u, 0x00u, 0x00u, 0x00u, 0x00u, 
  59:Generated_Source\PSoC4/BLE_gatt.c ****         0x00u, 0x00u, 0x00u, 0x00u, 0x00u, 0x00u, 0x00u, 0x00u, 0x00u, 0x00u, 0x00u, 0x00u, 0x00u, 
  60:Generated_Source\PSoC4/BLE_gatt.c ****         0x00u, 0x00u, 0x00u, 0x00u, 0x00u, 0x00u, 0x00u, 0x00u, 0x00u, 0x00u, 0x00u, 0x00u, 0x00u, 
  61:Generated_Source\PSoC4/BLE_gatt.c ****         0x00u, 0x00u, 0x00u, 0x00u, 0x00u, 0x00u, 0x00u, 0x00u, 0x00u, 0x00u, 0x00u, 0x00u, 0x00u, 
  62:Generated_Source\PSoC4/BLE_gatt.c ****         0x00u, 0x00u, 0x00u, 0x00u, 0x00u, 0x00u, 0x00u, 0x00u, 0x00u, 0x00u, 0x00u, 0x00u, 0x00u, 
  63:Generated_Source\PSoC4/BLE_gatt.c ****         0x00u, 0x00u, 0x00u, 0x00u, 0x00u, 0x00u, 0x00u, 0x00u, 0x00u, 0x00u, 0x00u, 0x00u, 0x00u, 
  64:Generated_Source\PSoC4/BLE_gatt.c ****         0x00u, 0x00u, 0x00u, 0x00u, 0x00u, 0x00u, 0x00u, 0x00u, 0x00u, 0x00u, 0x00u, 0x00u, 0x00u, 
  65:Generated_Source\PSoC4/BLE_gatt.c ****         0x00u, 0x00u, 0x00u, 0x00u, 0x00u, 0x00u, 0x00u, 0x00u, 0x00u, 0x00u, 0x00u, 0x00u, 0x00u, 
  66:Generated_Source\PSoC4/BLE_gatt.c ****         0x00u, 0x00u, 0x00u, 0x00u, 0x00u, 0x00u, 0x00u, 0x00u, 0x00u, 0x00u, 0x00u, 0x00u, 0x00u, 
  67:Generated_Source\PSoC4/BLE_gatt.c ****         0x00u, 0x00u, 0x00u, 0x00u, 0x00u, 0x00u, 0x00u, 0x00u, 0x00u, 0x00u, 0x00u, 0x00u, 0x00u, 
  68:Generated_Source\PSoC4/BLE_gatt.c ****         0x00u, 0x00u, 0x00u, 0x00u, 0x00u, 0x00u, 0x00u, 0x00u, 0x00u, 0x00u, 0x00u, 0x00u, 0x00u, 
  69:Generated_Source\PSoC4/BLE_gatt.c ****         0x00u, 0x00u, 0x00u, 0x00u, 0x00u, 0x00u, 0x00u, 0x00u, 0x00u, 0x00u, 0x00u, 0x00u, 0x00u, 
  70:Generated_Source\PSoC4/BLE_gatt.c ****         0x00u, 0x00u, 0x00u, 0x00u, 0x00u, 0x00u, 0x00u, 0x00u, 0x00u, 0x00u, 0x00u, 0x00u, 0x00u, 
  71:Generated_Source\PSoC4/BLE_gatt.c ****         0x00u, 0x00u, 0x00u, 0x00u, 0x00u, 0x00u, 0x00u, 0x00u, 0x00u, 0x00u, 0x00u, 0x00u, 0x00u, 
  72:Generated_Source\PSoC4/BLE_gatt.c ****         0x00u, 0x00u, 0x00u, 0x00u, 0x00u, 0x00u, 0x00u, 0x00u, 0x00u, 0x00u, 0x00u, 0x00u, 0x00u, 
ARM GAS  C:\Users\DANIEL~1\AppData\Local\Temp\ccGoCNc5.s 			page 6


  73:Generated_Source\PSoC4/BLE_gatt.c ****         0x00u, 0x00u, 0x00u, 0x00u, 0x00u, 0x00u, 0x00u, 0x00u, 0x00u, 0x00u, 0x00u, 0x00u, 0x00u, 
  74:Generated_Source\PSoC4/BLE_gatt.c ****         0x00u, 0x00u, 0x00u, 0x00u, 0x00u, 0x00u, 0x00u, 0x00u, 0x00u, 0x00u, 0x00u, 0x00u, 0x00u, 
  75:Generated_Source\PSoC4/BLE_gatt.c ****         0x00u, 0x00u, 0x00u, 0x00u, 0x00u, 0x00u, 0x00u, 0x00u, 0x00u, 0x00u, 0x00u, 0x00u, 0x00u, 
  76:Generated_Source\PSoC4/BLE_gatt.c ****         0x00u, 0x00u, 0x00u, 0x00u, 0x00u, 0x00u, 0x00u, 0x00u, 0x00u, 0x00u, 0x00u, 0x00u, 0x00u, 
  77:Generated_Source\PSoC4/BLE_gatt.c ****         0x00u, 0x00u, 0x00u, 0x00u, 0x00u, 0x00u, 0x00u, 0x00u, 0x00u, 0x00u, 0x00u, 0x00u, 0x00u, 
  78:Generated_Source\PSoC4/BLE_gatt.c ****         0x00u, 0x00u, 0x00u, 0x00u, 0x00u, 0x00u, 0x00u, 0x00u, 0x00u, 0x00u, 0x00u, 0x00u, 0x00u, 
  79:Generated_Source\PSoC4/BLE_gatt.c ****         0x00u, 0x00u, 0x00u, 0x00u, 0x00u, 0x00u, 0x00u, 0x00u, 0x00u, 0x00u }, 
  80:Generated_Source\PSoC4/BLE_gatt.c ****         {{
  81:Generated_Source\PSoC4/BLE_gatt.c ****             0x00u, 0x00u,
  82:Generated_Source\PSoC4/BLE_gatt.c ****         },
  83:Generated_Source\PSoC4/BLE_gatt.c ****         {
  84:Generated_Source\PSoC4/BLE_gatt.c ****             0x00u, 0x00u,
  85:Generated_Source\PSoC4/BLE_gatt.c ****         },
  86:Generated_Source\PSoC4/BLE_gatt.c ****         {
  87:Generated_Source\PSoC4/BLE_gatt.c ****             0x00u, 0x00u,
  88:Generated_Source\PSoC4/BLE_gatt.c ****         },
  89:Generated_Source\PSoC4/BLE_gatt.c ****         {
  90:Generated_Source\PSoC4/BLE_gatt.c ****             0x00u, 0x00u,
  91:Generated_Source\PSoC4/BLE_gatt.c ****         },
  92:Generated_Source\PSoC4/BLE_gatt.c ****         {
  93:Generated_Source\PSoC4/BLE_gatt.c ****             0x00u, 0x00u,
  94:Generated_Source\PSoC4/BLE_gatt.c ****         }}, 
  95:Generated_Source\PSoC4/BLE_gatt.c ****         0x02u, /* CYBLE_GATT_DB_CCCD_COUNT */ 
  96:Generated_Source\PSoC4/BLE_gatt.c ****         0x05u, /* CYBLE_GAP_MAX_BONDED_DEVICE */ 
  97:Generated_Source\PSoC4/BLE_gatt.c ****     };
  98:Generated_Source\PSoC4/BLE_gatt.c **** #endif /* (CYBLE_MODE_PROFILE) */
  99:Generated_Source\PSoC4/BLE_gatt.c **** 
 100:Generated_Source\PSoC4/BLE_gatt.c **** #endif  /* (CYBLE_MODE_PROFILE) && (CYBLE_BONDING_REQUIREMENT == CYBLE_BONDING_YES) */
 101:Generated_Source\PSoC4/BLE_gatt.c **** 
 102:Generated_Source\PSoC4/BLE_gatt.c **** #if(CYBLE_GATT_ROLE_SERVER)
 103:Generated_Source\PSoC4/BLE_gatt.c ****     
 104:Generated_Source\PSoC4/BLE_gatt.c ****     const CYBLE_GATTS_T cyBle_gatts =
 105:Generated_Source\PSoC4/BLE_gatt.c **** {
 106:Generated_Source\PSoC4/BLE_gatt.c ****     0x0008u,    /* Handle of the GATT service */
 107:Generated_Source\PSoC4/BLE_gatt.c ****     0x000Au,    /* Handle of the Service Changed characteristic */
 108:Generated_Source\PSoC4/BLE_gatt.c ****     0x000Bu,    /* Handle of the Client Characteristic Configuration descriptor */
 109:Generated_Source\PSoC4/BLE_gatt.c **** };
 110:Generated_Source\PSoC4/BLE_gatt.c ****     
 111:Generated_Source\PSoC4/BLE_gatt.c ****     static uint8 cyBle_attValues[0x1Du] = {
 112:Generated_Source\PSoC4/BLE_gatt.c ****     /* Device Name */
 113:Generated_Source\PSoC4/BLE_gatt.c ****     (uint8)'F', (uint8)'i', (uint8)'n', (uint8)'d', (uint8)' ', (uint8)'M', (uint8)'e', (uint8)' ',
 114:Generated_Source\PSoC4/BLE_gatt.c ****     (uint8)'a', (uint8)'r', (uint8)'g', (uint8)'e', (uint8)'t',
 115:Generated_Source\PSoC4/BLE_gatt.c **** 
 116:Generated_Source\PSoC4/BLE_gatt.c ****     /* Appearance */
 117:Generated_Source\PSoC4/BLE_gatt.c ****     0x40u, 0x02u,
 118:Generated_Source\PSoC4/BLE_gatt.c **** 
 119:Generated_Source\PSoC4/BLE_gatt.c ****     /* Peripheral Preferred Connection Parameters */
 120:Generated_Source\PSoC4/BLE_gatt.c ****     0x06u, 0x00u, 0x28u, 0x00u, 0x00u, 0x00u, 0xE8u, 0x03u,
 121:Generated_Source\PSoC4/BLE_gatt.c **** 
 122:Generated_Source\PSoC4/BLE_gatt.c ****     /* Service Changed */
 123:Generated_Source\PSoC4/BLE_gatt.c ****     0x00u, 0x00u, 0x00u, 0x00u,
 124:Generated_Source\PSoC4/BLE_gatt.c **** 
 125:Generated_Source\PSoC4/BLE_gatt.c ****     /* Alert Level */
 126:Generated_Source\PSoC4/BLE_gatt.c ****     0x00u,
 127:Generated_Source\PSoC4/BLE_gatt.c **** 
 128:Generated_Source\PSoC4/BLE_gatt.c **** };
 129:Generated_Source\PSoC4/BLE_gatt.c **** #if(CYBLE_GATT_DB_CCCD_COUNT != 0u)
ARM GAS  C:\Users\DANIEL~1\AppData\Local\Temp\ccGoCNc5.s 			page 7


 130:Generated_Source\PSoC4/BLE_gatt.c **** uint8 cyBle_attValuesCCCD[CYBLE_GATT_DB_CCCD_COUNT];
 131:Generated_Source\PSoC4/BLE_gatt.c **** #endif /* CYBLE_GATT_DB_CCCD_COUNT != 0u */
 132:Generated_Source\PSoC4/BLE_gatt.c **** 
 133:Generated_Source\PSoC4/BLE_gatt.c **** CYBLE_GATTS_ATT_GEN_VAL_LEN_T cyBle_attValuesLen[CYBLE_GATT_DB_ATT_VAL_COUNT] = {
 134:Generated_Source\PSoC4/BLE_gatt.c ****     { 0x000Eu, (void *)&cyBle_attValues[0] }, /* Device Name */
 135:Generated_Source\PSoC4/BLE_gatt.c ****     { 0x0002u, (void *)&cyBle_attValues[14] }, /* Appearance */
 136:Generated_Source\PSoC4/BLE_gatt.c ****     { 0x0008u, (void *)&cyBle_attValues[16] }, /* Peripheral Preferred Connection Parameters */
 137:Generated_Source\PSoC4/BLE_gatt.c ****     { 0x0004u, (void *)&cyBle_attValues[24] }, /* Service Changed */
 138:Generated_Source\PSoC4/BLE_gatt.c ****     { 0x0002u, (void *)&cyBle_attValuesCCCD[0] }, /* Client Characteristic Configuration */
 139:Generated_Source\PSoC4/BLE_gatt.c ****     { 0x0001u, (void *)&cyBle_attValues[28] }, /* Alert Level */
 140:Generated_Source\PSoC4/BLE_gatt.c **** };
 141:Generated_Source\PSoC4/BLE_gatt.c **** 
 142:Generated_Source\PSoC4/BLE_gatt.c **** const CYBLE_GATTS_DB_T cyBle_gattDB[0x0Eu] = {
 143:Generated_Source\PSoC4/BLE_gatt.c ****     { 0x0001u, 0x2800u /* Primary service                     */, 0x00000001u /*       */, 0x0007u,
 144:Generated_Source\PSoC4/BLE_gatt.c ****     { 0x0002u, 0x2803u /* Characteristic                      */, 0x00020001u /* rd    */, 0x0003u,
 145:Generated_Source\PSoC4/BLE_gatt.c ****     { 0x0003u, 0x2A00u /* Device Name                         */, 0x01020001u /* rd    */, 0x0003u,
 146:Generated_Source\PSoC4/BLE_gatt.c ****     { 0x0004u, 0x2803u /* Characteristic                      */, 0x00020001u /* rd    */, 0x0005u,
 147:Generated_Source\PSoC4/BLE_gatt.c ****     { 0x0005u, 0x2A01u /* Appearance                          */, 0x01020001u /* rd    */, 0x0005u,
 148:Generated_Source\PSoC4/BLE_gatt.c ****     { 0x0006u, 0x2803u /* Characteristic                      */, 0x00020001u /* rd    */, 0x0007u,
 149:Generated_Source\PSoC4/BLE_gatt.c ****     { 0x0007u, 0x2A04u /* Peripheral Preferred Connection Par */, 0x01020001u /* rd    */, 0x0007u,
 150:Generated_Source\PSoC4/BLE_gatt.c ****     { 0x0008u, 0x2800u /* Primary service                     */, 0x00000001u /*       */, 0x000Bu,
 151:Generated_Source\PSoC4/BLE_gatt.c ****     { 0x0009u, 0x2803u /* Characteristic                      */, 0x00200001u /* ind   */, 0x000Bu,
 152:Generated_Source\PSoC4/BLE_gatt.c ****     { 0x000Au, 0x2A05u /* Service Changed                     */, 0x01200000u /* ind   */, 0x000Bu,
 153:Generated_Source\PSoC4/BLE_gatt.c ****     { 0x000Bu, 0x2902u /* Client Characteristic Configuration */, 0x010A0101u /* rd,wr */, 0x000Bu,
 154:Generated_Source\PSoC4/BLE_gatt.c ****     { 0x000Cu, 0x2800u /* Primary service                     */, 0x00000001u /*       */, 0x000Eu,
 155:Generated_Source\PSoC4/BLE_gatt.c ****     { 0x000Du, 0x2803u /* Characteristic                      */, 0x00040001u /* wwr   */, 0x000Eu,
 156:Generated_Source\PSoC4/BLE_gatt.c ****     { 0x000Eu, 0x2A06u /* Alert Level                         */, 0x01040100u /* wwr   */, 0x000Eu,
 157:Generated_Source\PSoC4/BLE_gatt.c **** };
 158:Generated_Source\PSoC4/BLE_gatt.c **** 
 159:Generated_Source\PSoC4/BLE_gatt.c **** 
 160:Generated_Source\PSoC4/BLE_gatt.c **** #endif /* (CYBLE_GATT_ROLE_SERVER) */
 161:Generated_Source\PSoC4/BLE_gatt.c **** 
 162:Generated_Source\PSoC4/BLE_gatt.c **** #if(CYBLE_GATT_ROLE_CLIENT)
 163:Generated_Source\PSoC4/BLE_gatt.c ****     
 164:Generated_Source\PSoC4/BLE_gatt.c **** CYBLE_CLIENT_STATE_T cyBle_clientState;
 165:Generated_Source\PSoC4/BLE_gatt.c **** CYBLE_GATTC_T cyBle_gattc;
 166:Generated_Source\PSoC4/BLE_gatt.c **** CYBLE_GATT_ATTR_HANDLE_RANGE_T cyBle_gattcDiscoveryRange;
 167:Generated_Source\PSoC4/BLE_gatt.c ****     
 168:Generated_Source\PSoC4/BLE_gatt.c **** #endif /* (CYBLE_GATT_ROLE_CLIENT) */
 169:Generated_Source\PSoC4/BLE_gatt.c **** 
 170:Generated_Source\PSoC4/BLE_gatt.c **** 
 171:Generated_Source\PSoC4/BLE_gatt.c **** #if(CYBLE_GATT_ROLE_SERVER)
 172:Generated_Source\PSoC4/BLE_gatt.c **** 
 173:Generated_Source\PSoC4/BLE_gatt.c **** /****************************************************************************** 
 174:Generated_Source\PSoC4/BLE_gatt.c **** * Function Name: CyBle_GattsReInitGattDb
 175:Generated_Source\PSoC4/BLE_gatt.c **** ***************************************************************************//**
 176:Generated_Source\PSoC4/BLE_gatt.c **** * 
 177:Generated_Source\PSoC4/BLE_gatt.c **** *  Reinitializes the GATT database.
 178:Generated_Source\PSoC4/BLE_gatt.c **** * 
 179:Generated_Source\PSoC4/BLE_gatt.c **** *  \return
 180:Generated_Source\PSoC4/BLE_gatt.c **** *  CYBLE_API_RESULT_T: An API result states if the API succeeded or failed with
 181:Generated_Source\PSoC4/BLE_gatt.c **** *  error codes:
 182:Generated_Source\PSoC4/BLE_gatt.c **** 
 183:Generated_Source\PSoC4/BLE_gatt.c **** *  Errors codes                          | Description
 184:Generated_Source\PSoC4/BLE_gatt.c **** *  ------------                          | -----------
 185:Generated_Source\PSoC4/BLE_gatt.c **** *  CYBLE_ERROR_OK						 | GATT database was reinitialized successfully.
 186:Generated_Source\PSoC4/BLE_gatt.c **** *  CYBLE_ERROR_INVALID_STATE             | If the function is called in any state except CYBLE_STAT
ARM GAS  C:\Users\DANIEL~1\AppData\Local\Temp\ccGoCNc5.s 			page 8


 187:Generated_Source\PSoC4/BLE_gatt.c **** *  CYBLE_ERROR_INVALID_PARAMETER         | If the Database has zero entries or is a NULL pointer.
 188:Generated_Source\PSoC4/BLE_gatt.c **** * 
 189:Generated_Source\PSoC4/BLE_gatt.c **** ******************************************************************************/
 190:Generated_Source\PSoC4/BLE_gatt.c **** CYBLE_API_RESULT_T CyBle_GattsReInitGattDb(void)
 191:Generated_Source\PSoC4/BLE_gatt.c **** {
 214              		.loc 1 191 0
 215              		.cfi_startproc
 216              		@ args = 0, pretend = 0, frame = 8
 217              		@ frame_needed = 1, uses_anonymous_args = 0
 218 0000 90B5     		push	{r4, r7, lr}
 219              		.cfi_def_cfa_offset 12
 220              		.cfi_offset 4, -12
 221              		.cfi_offset 7, -8
 222              		.cfi_offset 14, -4
 223 0002 83B0     		sub	sp, sp, #12
 224              		.cfi_def_cfa_offset 24
 225 0004 00AF     		add	r7, sp, #0
 226              		.cfi_def_cfa_register 7
 192:Generated_Source\PSoC4/BLE_gatt.c ****     CYBLE_API_RESULT_T apiResult;
 193:Generated_Source\PSoC4/BLE_gatt.c ****     
 194:Generated_Source\PSoC4/BLE_gatt.c ****     if(CyBle_GetState() == CYBLE_STATE_DISCONNECTED)
 227              		.loc 1 194 0
 228 0006 0C4B     		ldr	r3, .L5
 229 0008 1B78     		ldrb	r3, [r3]
 230 000a 042B     		cmp	r3, #4
 231 000c 09D1     		bne	.L2
 195:Generated_Source\PSoC4/BLE_gatt.c ****     {
 196:Generated_Source\PSoC4/BLE_gatt.c ****         apiResult = CyBle_GattsDbRegister(cyBle_gattDB, CYBLE_GATT_DB_INDEX_COUNT, CYBLE_GATT_DB_MA
 232              		.loc 1 196 0
 233 000e BC1D     		adds	r4, r7, #6
 234 0010 0A4B     		ldr	r3, .L5+4
 235 0012 0E22     		movs	r2, #14
 236 0014 0E21     		movs	r1, #14
 237 0016 1800     		movs	r0, r3
 238 0018 FFF7FEFF 		bl	CyBle_GattsDbRegister
 239 001c 0300     		movs	r3, r0
 240 001e 2380     		strh	r3, [r4]
 241 0020 03E0     		b	.L3
 242              	.L2:
 197:Generated_Source\PSoC4/BLE_gatt.c ****     }
 198:Generated_Source\PSoC4/BLE_gatt.c ****     else
 199:Generated_Source\PSoC4/BLE_gatt.c ****     {
 200:Generated_Source\PSoC4/BLE_gatt.c ****         apiResult = CYBLE_ERROR_INVALID_STATE;
 243              		.loc 1 200 0
 244 0022 BB1D     		adds	r3, r7, #6
 245 0024 0422     		movs	r2, #4
 246 0026 FF32     		adds	r2, r2, #255
 247 0028 1A80     		strh	r2, [r3]
 248              	.L3:
 201:Generated_Source\PSoC4/BLE_gatt.c ****     }
 202:Generated_Source\PSoC4/BLE_gatt.c ****     
 203:Generated_Source\PSoC4/BLE_gatt.c ****     return(apiResult);
 249              		.loc 1 203 0
 250 002a BB1D     		adds	r3, r7, #6
 251 002c 1B88     		ldrh	r3, [r3]
 204:Generated_Source\PSoC4/BLE_gatt.c **** }
 252              		.loc 1 204 0
ARM GAS  C:\Users\DANIEL~1\AppData\Local\Temp\ccGoCNc5.s 			page 9


 253 002e 1800     		movs	r0, r3
 254 0030 BD46     		mov	sp, r7
 255 0032 03B0     		add	sp, sp, #12
 256              		@ sp needed
 257 0034 90BD     		pop	{r4, r7, pc}
 258              	.L6:
 259 0036 C046     		.align	2
 260              	.L5:
 261 0038 00000000 		.word	cyBle_state
 262 003c 00000000 		.word	cyBle_gattDB
 263              		.cfi_endproc
 264              	.LFE2:
 265              		.size	CyBle_GattsReInitGattDb, .-CyBle_GattsReInitGattDb
 266              		.section	.text.CyBle_GattsWriteEventHandler,"ax",%progbits
 267              		.align	2
 268              		.global	CyBle_GattsWriteEventHandler
 269              		.code	16
 270              		.thumb_func
 271              		.type	CyBle_GattsWriteEventHandler, %function
 272              	CyBle_GattsWriteEventHandler:
 273              	.LFB3:
 205:Generated_Source\PSoC4/BLE_gatt.c **** 
 206:Generated_Source\PSoC4/BLE_gatt.c **** 
 207:Generated_Source\PSoC4/BLE_gatt.c **** /****************************************************************************** 
 208:Generated_Source\PSoC4/BLE_gatt.c **** * Function Name: CyBle_GattsWriteEventHandler
 209:Generated_Source\PSoC4/BLE_gatt.c **** ***************************************************************************//**
 210:Generated_Source\PSoC4/BLE_gatt.c **** * 
 211:Generated_Source\PSoC4/BLE_gatt.c **** *  Handles the Write Request Event for GATT service.
 212:Generated_Source\PSoC4/BLE_gatt.c **** * 
 213:Generated_Source\PSoC4/BLE_gatt.c **** *  \param eventParam: The pointer to the data structure specified by the event.
 214:Generated_Source\PSoC4/BLE_gatt.c **** * 
 215:Generated_Source\PSoC4/BLE_gatt.c **** *  \return
 216:Generated_Source\PSoC4/BLE_gatt.c **** *  CYBLE_GATT_ERR_CODE_T: An API result returns one of the following status 
 217:Generated_Source\PSoC4/BLE_gatt.c **** *  values.
 218:Generated_Source\PSoC4/BLE_gatt.c **** 
 219:Generated_Source\PSoC4/BLE_gatt.c **** *  Errors codes                          | Description
 220:Generated_Source\PSoC4/BLE_gatt.c **** *  --------------------                  | -----------
 221:Generated_Source\PSoC4/BLE_gatt.c **** *  CYBLE_GATT_ERR_NONE                   | Write is successful.
 222:Generated_Source\PSoC4/BLE_gatt.c **** * 
 223:Generated_Source\PSoC4/BLE_gatt.c **** ******************************************************************************/
 224:Generated_Source\PSoC4/BLE_gatt.c **** CYBLE_GATT_ERR_CODE_T CyBle_GattsWriteEventHandler(CYBLE_GATTS_WRITE_REQ_PARAM_T *eventParam)
 225:Generated_Source\PSoC4/BLE_gatt.c **** {
 274              		.loc 1 225 0
 275              		.cfi_startproc
 276              		@ args = 0, pretend = 0, frame = 16
 277              		@ frame_needed = 1, uses_anonymous_args = 0
 278 0000 90B5     		push	{r4, r7, lr}
 279              		.cfi_def_cfa_offset 12
 280              		.cfi_offset 4, -12
 281              		.cfi_offset 7, -8
 282              		.cfi_offset 14, -4
 283 0002 85B0     		sub	sp, sp, #20
 284              		.cfi_def_cfa_offset 32
 285 0004 00AF     		add	r7, sp, #0
 286              		.cfi_def_cfa_register 7
 287 0006 7860     		str	r0, [r7, #4]
 226:Generated_Source\PSoC4/BLE_gatt.c ****     CYBLE_GATT_ERR_CODE_T gattErr = CYBLE_GATT_ERR_NONE;
ARM GAS  C:\Users\DANIEL~1\AppData\Local\Temp\ccGoCNc5.s 			page 10


 288              		.loc 1 226 0
 289 0008 0F23     		movs	r3, #15
 290 000a FB18     		adds	r3, r7, r3
 291 000c 0022     		movs	r2, #0
 292 000e 1A70     		strb	r2, [r3]
 227:Generated_Source\PSoC4/BLE_gatt.c ****     
 228:Generated_Source\PSoC4/BLE_gatt.c ****     /* Client Characteristic Configuration descriptor write request */
 229:Generated_Source\PSoC4/BLE_gatt.c ****     if(eventParam->handleValPair.attrHandle == cyBle_gatts.cccdHandle)
 293              		.loc 1 229 0
 294 0010 7B68     		ldr	r3, [r7, #4]
 295 0012 9B89     		ldrh	r3, [r3, #12]
 296 0014 0B22     		movs	r2, #11
 297 0016 9342     		cmp	r3, r2
 298 0018 32D1     		bne	.L8
 230:Generated_Source\PSoC4/BLE_gatt.c ****     {
 231:Generated_Source\PSoC4/BLE_gatt.c ****         /* Store value to database */
 232:Generated_Source\PSoC4/BLE_gatt.c ****         gattErr = CyBle_GattsWriteAttributeValue(&eventParam->handleValPair, 0u, 
 299              		.loc 1 232 0
 300 001a 7B68     		ldr	r3, [r7, #4]
 301 001c 181D     		adds	r0, r3, #4
 302 001e 7A68     		ldr	r2, [r7, #4]
 303 0020 0F23     		movs	r3, #15
 304 0022 FC18     		adds	r4, r7, r3
 305 0024 4023     		movs	r3, #64
 306 0026 0021     		movs	r1, #0
 307 0028 FFF7FEFF 		bl	CyBle_GattsWriteAttributeValue
 308 002c 0300     		movs	r3, r0
 309 002e 2370     		strb	r3, [r4]
 233:Generated_Source\PSoC4/BLE_gatt.c ****                         &eventParam->connHandle, CYBLE_GATT_DB_PEER_INITIATED);
 234:Generated_Source\PSoC4/BLE_gatt.c ****         
 235:Generated_Source\PSoC4/BLE_gatt.c ****         if(gattErr == CYBLE_GATT_ERR_NONE)
 310              		.loc 1 235 0
 311 0030 0F23     		movs	r3, #15
 312 0032 FB18     		adds	r3, r7, r3
 313 0034 1B78     		ldrb	r3, [r3]
 314 0036 002B     		cmp	r3, #0
 315 0038 1AD1     		bne	.L9
 236:Generated_Source\PSoC4/BLE_gatt.c ****         {
 237:Generated_Source\PSoC4/BLE_gatt.c ****             if(CYBLE_IS_INDICATION_ENABLED_IN_PTR(eventParam->handleValPair.value.val))
 316              		.loc 1 237 0
 317 003a 7B68     		ldr	r3, [r7, #4]
 318 003c 5B68     		ldr	r3, [r3, #4]
 319 003e 1800     		movs	r0, r3
 320 0040 FFF7FEFF 		bl	CyBle_Get16ByPtr
 321 0044 0300     		movs	r3, r0
 322 0046 1A00     		movs	r2, r3
 323 0048 0223     		movs	r3, #2
 324 004a 1340     		ands	r3, r2
 325 004c 9BB2     		uxth	r3, r3
 326 004e 002B     		cmp	r3, #0
 327 0050 07D0     		beq	.L10
 238:Generated_Source\PSoC4/BLE_gatt.c ****             {
 239:Generated_Source\PSoC4/BLE_gatt.c ****                 CyBle_ApplCallback((uint32)CYBLE_EVT_GATTS_INDICATION_ENABLED, eventParam);
 328              		.loc 1 239 0
 329 0052 0F4B     		ldr	r3, .L12
 330 0054 1B68     		ldr	r3, [r3]
 331 0056 7968     		ldr	r1, [r7, #4]
ARM GAS  C:\Users\DANIEL~1\AppData\Local\Temp\ccGoCNc5.s 			page 11


 332 0058 8222     		movs	r2, #130
 333 005a 5200     		lsls	r2, r2, #1
 334 005c 1000     		movs	r0, r2
 335 005e 9847     		blx	r3
 336 0060 06E0     		b	.L9
 337              	.L10:
 240:Generated_Source\PSoC4/BLE_gatt.c ****             }
 241:Generated_Source\PSoC4/BLE_gatt.c ****             else
 242:Generated_Source\PSoC4/BLE_gatt.c ****             {
 243:Generated_Source\PSoC4/BLE_gatt.c ****                 CyBle_ApplCallback((uint32)CYBLE_EVT_GATTS_INDICATION_DISABLED, eventParam);
 338              		.loc 1 243 0
 339 0062 0B4B     		ldr	r3, .L12
 340 0064 1B68     		ldr	r3, [r3]
 341 0066 7968     		ldr	r1, [r7, #4]
 342 0068 0622     		movs	r2, #6
 343 006a FF32     		adds	r2, r2, #255
 344 006c 1000     		movs	r0, r2
 345 006e 9847     		blx	r3
 346              	.L9:
 244:Generated_Source\PSoC4/BLE_gatt.c ****             }
 245:Generated_Source\PSoC4/BLE_gatt.c ****         }
 246:Generated_Source\PSoC4/BLE_gatt.c ****         cyBle_eventHandlerFlag &= (uint8)~CYBLE_CALLBACK;
 347              		.loc 1 246 0
 348 0070 084B     		ldr	r3, .L12+4
 349 0072 1B78     		ldrb	r3, [r3]
 350 0074 DBB2     		uxtb	r3, r3
 351 0076 0122     		movs	r2, #1
 352 0078 9343     		bics	r3, r2
 353 007a DAB2     		uxtb	r2, r3
 354 007c 054B     		ldr	r3, .L12+4
 355 007e 1A70     		strb	r2, [r3]
 356              	.L8:
 247:Generated_Source\PSoC4/BLE_gatt.c ****     }
 248:Generated_Source\PSoC4/BLE_gatt.c ****     return (gattErr);
 357              		.loc 1 248 0
 358 0080 0F23     		movs	r3, #15
 359 0082 FB18     		adds	r3, r7, r3
 360 0084 1B78     		ldrb	r3, [r3]
 249:Generated_Source\PSoC4/BLE_gatt.c **** }
 361              		.loc 1 249 0
 362 0086 1800     		movs	r0, r3
 363 0088 BD46     		mov	sp, r7
 364 008a 05B0     		add	sp, sp, #20
 365              		@ sp needed
 366 008c 90BD     		pop	{r4, r7, pc}
 367              	.L13:
 368 008e C046     		.align	2
 369              	.L12:
 370 0090 00000000 		.word	CyBle_ApplCallback
 371 0094 00000000 		.word	cyBle_eventHandlerFlag
 372              		.cfi_endproc
 373              	.LFE3:
 374              		.size	CyBle_GattsWriteEventHandler, .-CyBle_GattsWriteEventHandler
 375              		.text
 376              	.Letext0:
 377              		.file 2 "Generated_Source\\PSoC4\\cytypes.h"
 378              		.file 3 "Generated_Source\\PSoC4\\BLE_Stack.h"
ARM GAS  C:\Users\DANIEL~1\AppData\Local\Temp\ccGoCNc5.s 			page 12


 379              		.file 4 "Generated_Source\\PSoC4\\BLE_StackGatt.h"
 380              		.file 5 "Generated_Source\\PSoC4\\BLE_StackGattServer.h"
 381              		.file 6 "Generated_Source\\PSoC4\\BLE_StackGattDb.h"
 382              		.file 7 "Generated_Source\\PSoC4\\BLE.h"
 383              		.file 8 "Generated_Source\\PSoC4\\BLE_gatt.h"
 384              		.file 9 "Generated_Source\\PSoC4\\BLE_eventHandler.h"