ARM GAS  C:\Users\dprdc\AppData\Local\Temp\ccdA2Bf1.s 			page 1


   1              		.syntax unified
   2              		.cpu cortex-m0
   3              		.fpu softvfp
   4              		.eabi_attribute 20, 1
   5              		.eabi_attribute 21, 1
   6              		.eabi_attribute 23, 3
   7              		.eabi_attribute 24, 1
   8              		.eabi_attribute 25, 1
   9              		.eabi_attribute 26, 1
  10              		.eabi_attribute 30, 6
  11              		.eabi_attribute 34, 0
  12              		.eabi_attribute 18, 4
  13              		.thumb
  14              		.syntax unified
  15              		.file	"main.c"
  16              		.text
  17              	.Ltext0:
  18              		.cfi_sections	.debug_frame
  19              		.section	.text.Stack_Handler,"ax",%progbits
  20              		.align	2
  21              		.global	Stack_Handler
  22              		.code	16
  23              		.thumb_func
  24              		.type	Stack_Handler, %function
  25              	Stack_Handler:
  26              	.LFB35:
  27              		.file 1 "main.c"
   1:main.c        **** /* ========================================
   2:main.c        ****  *
   3:main.c        ****  * Copyright YOUR COMPANY, THE YEAR
   4:main.c        ****  * All Rights Reserved
   5:main.c        ****  * UNPUBLISHED, LICENSED SOFTWARE.
   6:main.c        ****  *
   7:main.c        ****  * CONFIDENTIAL AND PROPRIETARY INFORMATION
   8:main.c        ****  * WHICH IS THE PROPERTY OF your company.
   9:main.c        ****  *
  10:main.c        ****  * ========================================
  11:main.c        **** */
  12:main.c        **** #include <project.h>
  13:main.c        **** 
  14:main.c        **** void Stack_Handler(uint32 eventCode, void *event)
  15:main.c        **** {
  28              		.loc 1 15 0
  29              		.cfi_startproc
  30              		@ args = 0, pretend = 0, frame = 16
  31              		@ frame_needed = 1, uses_anonymous_args = 0
  32 0000 80B5     		push	{r7, lr}
  33              		.cfi_def_cfa_offset 8
  34              		.cfi_offset 7, -8
  35              		.cfi_offset 14, -4
  36 0002 84B0     		sub	sp, sp, #16
  37              		.cfi_def_cfa_offset 24
  38 0004 00AF     		add	r7, sp, #0
  39              		.cfi_def_cfa_register 7
  40 0006 7860     		str	r0, [r7, #4]
  41 0008 3960     		str	r1, [r7]
  16:main.c        ****     //authetification info
ARM GAS  C:\Users\dprdc\AppData\Local\Temp\ccdA2Bf1.s 			page 2


  17:main.c        ****     CYBLE_GAP_AUTH_INFO_T authInfo;
  18:main.c        ****     authInfo.security = (CYBLE_GAP_SEC_MODE_1 | CYBLE_GAP_SEC_LEVEL_1);
  42              		.loc 1 18 0
  43 000a 0823     		movs	r3, #8
  44 000c FB18     		adds	r3, r7, r3
  45 000e 1022     		movs	r2, #16
  46 0010 1A70     		strb	r2, [r3]
  19:main.c        ****     authInfo.bonding = CYBLE_GAP_BONDING;
  47              		.loc 1 19 0
  48 0012 0823     		movs	r3, #8
  49 0014 FB18     		adds	r3, r7, r3
  50 0016 0122     		movs	r2, #1
  51 0018 5A70     		strb	r2, [r3, #1]
  20:main.c        ****     authInfo.ekeySize = 16;
  52              		.loc 1 20 0
  53 001a 0823     		movs	r3, #8
  54 001c FB18     		adds	r3, r7, r3
  55 001e 1022     		movs	r2, #16
  56 0020 9A70     		strb	r2, [r3, #2]
  21:main.c        ****     authInfo.authErr = CYBLE_GAP_AUTH_ERROR_NONE;
  57              		.loc 1 21 0
  58 0022 0823     		movs	r3, #8
  59 0024 FB18     		adds	r3, r7, r3
  60 0026 0022     		movs	r2, #0
  61 0028 DA70     		strb	r2, [r3, #3]
  22:main.c        ****     authInfo.pairingProperties = 0x0;
  62              		.loc 1 22 0
  63 002a 0823     		movs	r3, #8
  64 002c FB18     		adds	r3, r7, r3
  65 002e 0022     		movs	r2, #0
  66 0030 1A71     		strb	r2, [r3, #4]
  23:main.c        ****     
  24:main.c        ****     switch(eventCode){
  67              		.loc 1 24 0
  68 0032 7B68     		ldr	r3, [r7, #4]
  69 0034 282B     		cmp	r3, #40
  70 0036 12D8     		bhi	.L6
  71 0038 7B68     		ldr	r3, [r7, #4]
  72 003a 9A00     		lsls	r2, r3, #2
  73 003c 0A4B     		ldr	r3, .L7
  74 003e D318     		adds	r3, r2, r3
  75 0040 1B68     		ldr	r3, [r3]
  76 0042 9F46     		mov	pc, r3
  77              		.section	.rodata
  78              		.align	2
  79              	.L4:
  80 0000 5E000000 		.word	.L6
  81 0004 44000000 		.word	.L3
  82 0008 44000000 		.word	.L3
  83 000c 5E000000 		.word	.L6
  84 0010 5E000000 		.word	.L6
  85 0014 5E000000 		.word	.L6
  86 0018 5E000000 		.word	.L6
  87 001c 5E000000 		.word	.L6
  88 0020 5E000000 		.word	.L6
  89 0024 5E000000 		.word	.L6
  90 0028 5E000000 		.word	.L6
ARM GAS  C:\Users\dprdc\AppData\Local\Temp\ccdA2Bf1.s 			page 3


  91 002c 5E000000 		.word	.L6
  92 0030 5E000000 		.word	.L6
  93 0034 5E000000 		.word	.L6
  94 0038 5E000000 		.word	.L6
  95 003c 5E000000 		.word	.L6
  96 0040 5E000000 		.word	.L6
  97 0044 5E000000 		.word	.L6
  98 0048 5E000000 		.word	.L6
  99 004c 5E000000 		.word	.L6
 100 0050 5E000000 		.word	.L6
 101 0054 5E000000 		.word	.L6
 102 0058 5E000000 		.word	.L6
 103 005c 5E000000 		.word	.L6
 104 0060 5E000000 		.word	.L6
 105 0064 5E000000 		.word	.L6
 106 0068 5E000000 		.word	.L6
 107 006c 5E000000 		.word	.L6
 108 0070 5E000000 		.word	.L6
 109 0074 5E000000 		.word	.L6
 110 0078 5E000000 		.word	.L6
 111 007c 5E000000 		.word	.L6
 112 0080 5E000000 		.word	.L6
 113 0084 4C000000 		.word	.L5
 114 0088 5E000000 		.word	.L6
 115 008c 5E000000 		.word	.L6
 116 0090 5E000000 		.word	.L6
 117 0094 44000000 		.word	.L3
 118 0098 5E000000 		.word	.L6
 119 009c 5E000000 		.word	.L6
 120 00a0 44000000 		.word	.L3
 121              		.section	.text.Stack_Handler
 122              	.L3:
  25:main.c        ****         case CYBLE_EVT_STACK_ON:
  26:main.c        ****         case CYBLE_EVT_TIMEOUT:
  27:main.c        ****         case CYBLE_EVT_GAP_AUTH_FAILED:
  28:main.c        ****         case CYBLE_EVT_GAP_DEVICE_DISCONNECTED:
  29:main.c        ****             CyBle_GappStartAdvertisement(CYBLE_ADVERTISING_FAST);
 123              		.loc 1 29 0
 124 0044 0020     		movs	r0, #0
 125 0046 FFF7FEFF 		bl	CyBle_GappStartAdvertisement
  30:main.c        ****             break;
 126              		.loc 1 30 0
 127 004a 08E0     		b	.L2
 128              	.L5:
  31:main.c        ****         case CYBLE_EVT_GAP_AUTH_REQ:
  32:main.c        ****             CyBle_GappAuthReqReply(cyBle_pendingFlashWrite,&authInfo);
 129              		.loc 1 32 0
 130 004c 074B     		ldr	r3, .L7+4
 131 004e 1B78     		ldrb	r3, [r3]
 132 0050 0822     		movs	r2, #8
 133 0052 BA18     		adds	r2, r7, r2
 134 0054 1100     		movs	r1, r2
 135 0056 1800     		movs	r0, r3
 136 0058 FFF7FEFF 		bl	CyBle_GappAuthReqReply
  33:main.c        ****             break;
 137              		.loc 1 33 0
 138 005c C046     		nop
ARM GAS  C:\Users\dprdc\AppData\Local\Temp\ccdA2Bf1.s 			page 4


 139              	.L2:
 140              	.L6:
  34:main.c        ****        //case CYBLE_EVT_GAP_AUTH_COMPLETE:
  35:main.c        ****             //CyBle_StoreBondingData();
  36:main.c        ****     }
  37:main.c        **** }
 141              		.loc 1 37 0
 142 005e C046     		nop
 143 0060 BD46     		mov	sp, r7
 144 0062 04B0     		add	sp, sp, #16
 145              		@ sp needed
 146 0064 80BD     		pop	{r7, pc}
 147              	.L8:
 148 0066 C046     		.align	2
 149              	.L7:
 150 0068 00000000 		.word	.L4
 151 006c 00000000 		.word	cyBle_pendingFlashWrite
 152              		.cfi_endproc
 153              	.LFE35:
 154              		.size	Stack_Handler, .-Stack_Handler
 155              		.section	.text.Ias_Handler,"ax",%progbits
 156              		.align	2
 157              		.global	Ias_Handler
 158              		.code	16
 159              		.thumb_func
 160              		.type	Ias_Handler, %function
 161              	Ias_Handler:
 162              	.LFB36:
  38:main.c        **** 
  39:main.c        **** void Ias_Handler(uint32 eventCode, void *eventParam){
 163              		.loc 1 39 0
 164              		.cfi_startproc
 165              		@ args = 0, pretend = 0, frame = 16
 166              		@ frame_needed = 1, uses_anonymous_args = 0
 167 0000 80B5     		push	{r7, lr}
 168              		.cfi_def_cfa_offset 8
 169              		.cfi_offset 7, -8
 170              		.cfi_offset 14, -4
 171 0002 84B0     		sub	sp, sp, #16
 172              		.cfi_def_cfa_offset 24
 173 0004 00AF     		add	r7, sp, #0
 174              		.cfi_def_cfa_register 7
 175 0006 7860     		str	r0, [r7, #4]
 176 0008 3960     		str	r1, [r7]
  40:main.c        ****     
  41:main.c        ****     CYBLE_IAS_CHAR_VALUE_T *param = (CYBLE_IAS_CHAR_VALUE_T *) eventParam;
 177              		.loc 1 41 0
 178 000a 3B68     		ldr	r3, [r7]
 179 000c FB60     		str	r3, [r7, #12]
  42:main.c        ****     
  43:main.c        ****     if(*param->value->val == 0)
 180              		.loc 1 43 0
 181 000e FB68     		ldr	r3, [r7, #12]
 182 0010 5B68     		ldr	r3, [r3, #4]
 183 0012 1B68     		ldr	r3, [r3]
 184 0014 1B78     		ldrb	r3, [r3]
 185 0016 002B     		cmp	r3, #0
ARM GAS  C:\Users\dprdc\AppData\Local\Temp\ccdA2Bf1.s 			page 5


 186 0018 03D1     		bne	.L10
  44:main.c        ****         PWM_WriteCompare(0);
 187              		.loc 1 44 0
 188 001a 0020     		movs	r0, #0
 189 001c FFF7FEFF 		bl	PWM_WriteCompare
  45:main.c        ****     else if(*param->value->val == 1)
  46:main.c        ****         PWM_WriteCompare(500);
  47:main.c        ****     else
  48:main.c        ****         PWM_WriteCompare(1000);
  49:main.c        **** }
 190              		.loc 1 49 0
 191 0020 10E0     		b	.L13
 192              	.L10:
  45:main.c        ****     else if(*param->value->val == 1)
 193              		.loc 1 45 0
 194 0022 FB68     		ldr	r3, [r7, #12]
 195 0024 5B68     		ldr	r3, [r3, #4]
 196 0026 1B68     		ldr	r3, [r3]
 197 0028 1B78     		ldrb	r3, [r3]
 198 002a 012B     		cmp	r3, #1
 199 002c 05D1     		bne	.L12
  46:main.c        ****     else
 200              		.loc 1 46 0
 201 002e FA23     		movs	r3, #250
 202 0030 5B00     		lsls	r3, r3, #1
 203 0032 1800     		movs	r0, r3
 204 0034 FFF7FEFF 		bl	PWM_WriteCompare
 205              		.loc 1 49 0
 206 0038 04E0     		b	.L13
 207              	.L12:
  48:main.c        **** }
 208              		.loc 1 48 0
 209 003a FA23     		movs	r3, #250
 210 003c 9B00     		lsls	r3, r3, #2
 211 003e 1800     		movs	r0, r3
 212 0040 FFF7FEFF 		bl	PWM_WriteCompare
 213              	.L13:
 214              		.loc 1 49 0
 215 0044 C046     		nop
 216 0046 BD46     		mov	sp, r7
 217 0048 04B0     		add	sp, sp, #16
 218              		@ sp needed
 219 004a 80BD     		pop	{r7, pc}
 220              		.cfi_endproc
 221              	.LFE36:
 222              		.size	Ias_Handler, .-Ias_Handler
 223              		.section	.text.Timer_ISR_Handler,"ax",%progbits
 224              		.align	2
 225              		.global	Timer_ISR_Handler
 226              		.code	16
 227              		.thumb_func
 228              		.type	Timer_ISR_Handler, %function
 229              	Timer_ISR_Handler:
 230              	.LFB37:
  50:main.c        **** 
  51:main.c        **** CY_ISR(Timer_ISR_Handler){
 231              		.loc 1 51 0
ARM GAS  C:\Users\dprdc\AppData\Local\Temp\ccdA2Bf1.s 			page 6


 232              		.cfi_startproc
 233              		@ args = 0, pretend = 0, frame = 16
 234              		@ frame_needed = 1, uses_anonymous_args = 0
 235 0000 80B5     		push	{r7, lr}
 236              		.cfi_def_cfa_offset 8
 237              		.cfi_offset 7, -8
 238              		.cfi_offset 14, -4
 239 0002 84B0     		sub	sp, sp, #16
 240              		.cfi_def_cfa_offset 24
 241 0004 00AF     		add	r7, sp, #0
 242              		.cfi_def_cfa_register 7
  52:main.c        ****     CYBLE_GATT_HANDLE_VALUE_PAIR_T point;
  53:main.c        ****     uint8 bval;
  54:main.c        ****     
  55:main.c        ****     point.attrHandle = cyBle_bass[0].batteryLevelHandle;
 243              		.loc 1 55 0
 244 0006 164B     		ldr	r3, .L17
 245 0008 5A88     		ldrh	r2, [r3, #2]
 246 000a 3B1D     		adds	r3, r7, #4
 247 000c 1A81     		strh	r2, [r3, #8]
  56:main.c        ****     point.value.len = 1;
 248              		.loc 1 56 0
 249 000e 3B1D     		adds	r3, r7, #4
 250 0010 0122     		movs	r2, #1
 251 0012 9A80     		strh	r2, [r3, #4]
  57:main.c        ****     point.value.val = &bval;
 252              		.loc 1 57 0
 253 0014 3B1D     		adds	r3, r7, #4
 254 0016 FA1C     		adds	r2, r7, #3
 255 0018 1A60     		str	r2, [r3]
  58:main.c        ****     
  59:main.c        ****     if(CYBLE_GATT_ERR_NONE == CyBle_GattsReadAttributeValue(&point,NULL,CYBLE_GATT_DB_LOCALLY_INITI
 256              		.loc 1 59 0
 257 001a 3B1D     		adds	r3, r7, #4
 258 001c 0022     		movs	r2, #0
 259 001e 0021     		movs	r1, #0
 260 0020 1800     		movs	r0, r3
 261 0022 FFF7FEFF 		bl	CyBle_GattsReadAttributeValue
 262 0026 031E     		subs	r3, r0, #0
 263 0028 12D1     		bne	.L15
  60:main.c        ****         if(--bval == 0)
 264              		.loc 1 60 0
 265 002a FB1C     		adds	r3, r7, #3
 266 002c 1B78     		ldrb	r3, [r3]
 267 002e 013B     		subs	r3, r3, #1
 268 0030 DAB2     		uxtb	r2, r3
 269 0032 FB1C     		adds	r3, r7, #3
 270 0034 1A70     		strb	r2, [r3]
 271 0036 FB1C     		adds	r3, r7, #3
 272 0038 1B78     		ldrb	r3, [r3]
 273 003a 002B     		cmp	r3, #0
 274 003c 02D1     		bne	.L16
  61:main.c        ****             bval = 100;
 275              		.loc 1 61 0
 276 003e FB1C     		adds	r3, r7, #3
 277 0040 6422     		movs	r2, #100
 278 0042 1A70     		strb	r2, [r3]
ARM GAS  C:\Users\dprdc\AppData\Local\Temp\ccdA2Bf1.s 			page 7


 279              	.L16:
  62:main.c        ****         
  63:main.c        ****         
  64:main.c        ****         CyBle_GattsWriteAttributeValue(&point,0,NULL,CYBLE_GATT_DB_LOCALLY_INITIATED);
 280              		.loc 1 64 0
 281 0044 381D     		adds	r0, r7, #4
 282 0046 0023     		movs	r3, #0
 283 0048 0022     		movs	r2, #0
 284 004a 0021     		movs	r1, #0
 285 004c FFF7FEFF 		bl	CyBle_GattsWriteAttributeValue
 286              	.L15:
  65:main.c        ****     }
  66:main.c        ****     Timer_ClearInterrupt(Timer_INTR_MASK_TC);
 287              		.loc 1 66 0
 288 0050 0120     		movs	r0, #1
 289 0052 FFF7FEFF 		bl	Timer_ClearInterrupt
  67:main.c        ****     
  68:main.c        **** }
 290              		.loc 1 68 0
 291 0056 C046     		nop
 292 0058 BD46     		mov	sp, r7
 293 005a 04B0     		add	sp, sp, #16
 294              		@ sp needed
 295 005c 80BD     		pop	{r7, pc}
 296              	.L18:
 297 005e C046     		.align	2
 298              	.L17:
 299 0060 00000000 		.word	cyBle_bass
 300              		.cfi_endproc
 301              	.LFE37:
 302              		.size	Timer_ISR_Handler, .-Timer_ISR_Handler
 303              		.section	.text.main,"ax",%progbits
 304              		.align	2
 305              		.global	main
 306              		.code	16
 307              		.thumb_func
 308              		.type	main, %function
 309              	main:
 310              	.LFB38:
  69:main.c        **** 
  70:main.c        **** int main (void)
  71:main.c        **** {
 311              		.loc 1 71 0
 312              		.cfi_startproc
 313              		@ args = 0, pretend = 0, frame = 0
 314              		@ frame_needed = 1, uses_anonymous_args = 0
 315 0000 80B5     		push	{r7, lr}
 316              		.cfi_def_cfa_offset 8
 317              		.cfi_offset 7, -8
 318              		.cfi_offset 14, -4
 319 0002 00AF     		add	r7, sp, #0
 320              		.cfi_def_cfa_register 7
  72:main.c        ****     CyGlobalIntEnable;
 321              		.loc 1 72 0
 322              		.syntax divided
 323              	@ 72 "main.c" 1
 324 0004 62B6     		CPSIE   i
ARM GAS  C:\Users\dprdc\AppData\Local\Temp\ccdA2Bf1.s 			page 8


 325              	@ 0 "" 2
  73:main.c        ****     
  74:main.c        ****     CyBle_Start(Stack_Handler);
 326              		.loc 1 74 0
 327              		.thumb
 328              		.syntax unified
 329 0006 094B     		ldr	r3, .L21
 330 0008 1800     		movs	r0, r3
 331 000a FFF7FEFF 		bl	CyBle_Start
  75:main.c        ****     CyBle_IasRegisterAttrCallback(Ias_Handler);
 332              		.loc 1 75 0
 333 000e 084B     		ldr	r3, .L21+4
 334 0010 1800     		movs	r0, r3
 335 0012 FFF7FEFF 		bl	CyBle_IasRegisterAttrCallback
  76:main.c        ****     
  77:main.c        ****     //start pulse width modulation
  78:main.c        ****     PWM_Start();
 336              		.loc 1 78 0
 337 0016 FFF7FEFF 		bl	PWM_Start
  79:main.c        ****     
  80:main.c        ****     //start timer
  81:main.c        ****     Timer_Start();
 338              		.loc 1 81 0
 339 001a FFF7FEFF 		bl	Timer_Start
  82:main.c        ****     Timer_ISR_StartEx(Timer_ISR_Handler);
 340              		.loc 1 82 0
 341 001e 054B     		ldr	r3, .L21+8
 342 0020 1800     		movs	r0, r3
 343 0022 FFF7FEFF 		bl	Timer_ISR_StartEx
 344              	.L20:
  83:main.c        **** 
  84:main.c        ****     /* CyGlobalIntEnable; */ /* Uncomment this line to enable global interrupts. */
  85:main.c        ****     for(;;)
  86:main.c        ****     {
  87:main.c        ****         CyBle_ProcessEvents();
 345              		.loc 1 87 0 discriminator 1
 346 0026 FFF7FEFF 		bl	CyBle_ProcessEvents
  88:main.c        ****     }
 347              		.loc 1 88 0 discriminator 1
 348 002a FCE7     		b	.L20
 349              	.L22:
 350              		.align	2
 351              	.L21:
 352 002c 00000000 		.word	Stack_Handler
 353 0030 00000000 		.word	Ias_Handler
 354 0034 00000000 		.word	Timer_ISR_Handler
 355              		.cfi_endproc
 356              	.LFE38:
 357              		.size	main, .-main
 358              		.text
 359              	.Letext0:
 360              		.file 2 "Generated_Source\\PSoC4/cytypes.h"
 361              		.file 3 "Generated_Source\\PSoC4/BLE_Stack.h"
 362              		.file 4 "Generated_Source\\PSoC4/BLE_StackGap.h"
 363              		.file 5 "Generated_Source\\PSoC4/BLE_StackGatt.h"
 364              		.file 6 "Generated_Source\\PSoC4/BLE_bas.h"
 365              		.file 7 "Generated_Source\\PSoC4/BLE_ias.h"
ARM GAS  C:\Users\dprdc\AppData\Local\Temp\ccdA2Bf1.s 			page 9


 366              		.file 8 "Generated_Source\\PSoC4/BLE.h"